; Function Attrs: mustprogress nofree norecurse nosync nounwind memory(read, argmem: readwrite, inaccessiblemem: none) uwtable
define void @_Z18gmx_calc_cog_blockPK10gmx_mtop_tPA3_fPK7t_blockPKiS3_(ptr noundef readnone captures(none) %0, ptr noundef readonly captures(none) %1, ptr noundef readonly captures(none) %2, ptr noundef readonly captures(none) %3, ptr noundef writeonly captures(none) %4) local_unnamed_addr #6 {
  %6 = load i32, ptr %2, align 8, !tbaa !68
  %7 = icmp sgt i32 %6, 0
  br i1 %7, label %.lr.ph34, label %._crit_edge35

.lr.ph34:                                         ; preds = %5
  %8 = getelementptr inbounds nuw i8, ptr %2, i64 8
  %9 = load ptr, ptr %8, align 8, !tbaa !70
  %wide.trip.count42 = zext nneg i32 %6 to i64
  %.pre = load i32, ptr %9, align 4, !tbaa !8
  br label %10

10:                                               ; preds = %.lr.ph34, %._crit_edge
  %11 = phi i32 [ %.pre, %.lr.ph34 ], [ %13, %._crit_edge ]
  %indvars.iv39 = phi i64 [ 0, %.lr.ph34 ], [ %indvars.iv.next40, %._crit_edge ]
  %indvars.iv.next40 = add nuw nsw i64 %indvars.iv39, 1
  %12 = getelementptr inbounds nuw i32, ptr %9, i64 %indvars.iv.next40
  %13 = load i32, ptr %12, align 4, !tbaa !8
  %14 = icmp slt i32 %11, %13
  br i1 %14, label %.lr.ph.preheader, label %._crit_edge

.lr.ph.preheader:                                 ; preds = %10
  %15 = sext i32 %11 to i64
  %wide.trip.count = sext i32 %13 to i64
  br label %.lr.ph

.lr.ph:                                           ; preds = %.lr.ph.preheader, %.lr.ph
  %indvars.iv = phi i64 [ %15, %.lr.ph.preheader ], [ %indvars.iv.next, %.lr.ph ]
  %.sroa.0.026 = phi float [ 0.000000e+00, %.lr.ph.preheader ], [ %21, %.lr.ph ]
  %.sroa.6.025 = phi float [ 0.000000e+00, %.lr.ph.preheader ], [ %24, %.lr.ph ]
  %.sroa.10.024 = phi float [ 0.000000e+00, %.lr.ph.preheader ], [ %27, %.lr.ph ]
  %16 = getelementptr inbounds i32, ptr %3, i64 %indvars.iv
  %17 = load i32, ptr %16, align 4, !tbaa !8
  %18 = sext i32 %17 to i64
  %19 = getelementptr inbounds [3 x float], ptr %1, i64 %18
  %20 = load float, ptr %19, align 4, !tbaa !4
  %21 = fadd float %.sroa.0.026, %20
  %22 = getelementptr inbounds nuw i8, ptr %19, i64 4
  %23 = load float, ptr %22, align 4, !tbaa !4
  %24 = fadd float %.sroa.6.025, %23
  %25 = getelementptr inbounds nuw i8, ptr %19, i64 8
  %26 = load float, ptr %25, align 4, !tbaa !4
  %27 = fadd float %.sroa.10.024, %26
  %indvars.iv.next = add nsw i64 %indvars.iv, 1
  %exitcond.not = icmp eq i64 %indvars.iv.next, %wide.trip.count
  br i1 %exitcond.not, label %._crit_edge, label %.lr.ph, !llvm.loop !71

._crit_edge:                                      ; preds = %.lr.ph, %10
  %.sroa.10.0.lcssa = phi float [ 0.000000e+00, %10 ], [ %27, %.lr.ph ]
  %.sroa.6.0.lcssa = phi float [ 0.000000e+00, %10 ], [ %24, %.lr.ph ]
  %.sroa.0.0.lcssa = phi float [ 0.000000e+00, %10 ], [ %21, %.lr.ph ]
  %28 = sub nsw i32 %13, %11
  %29 = sitofp i32 %28 to double
  %30 = fdiv double 1.000000e+00, %29
  %31 = fptrunc double %30 to float
  %32 = getelementptr inbounds nuw [3 x float], ptr %4, i64 %indvars.iv39
  %33 = fmul float %.sroa.0.0.lcssa, %31
  store float %33, ptr %32, align 4, !tbaa !4
  %34 = fmul float %.sroa.6.0.lcssa, %31
  %35 = getelementptr inbounds nuw i8, ptr %32, i64 4
  store float %34, ptr %35, align 4, !tbaa !4
  %36 = fmul float %.sroa.10.0.lcssa, %31
  %37 = getelementptr inbounds nuw i8, ptr %32, i64 8
  store float %36, ptr %37, align 4, !tbaa !4
  %exitcond43.not = icmp eq i64 %indvars.iv.next40, %wide.trip.count42
  br i1 %exitcond43.not, label %._crit_edge35, label %10, !llvm.loop !72

._crit_edge35:                                    ; preds = %._crit_edge, %5
  ret void
}